target datalayout = "e-m:e-p270:32:32-p271:32:32-p272:64:64-i64:64-i128:128-f80:128-n8:16:32:64-S128"
target triple = "x86_64-pc-linux-gnu"

@.str.1 = private unnamed_addr constant [31 x i8] c"../openssl/crypto/ts/ts_conf.c\00", align 1
@.str.24 = private unnamed_addr constant [16 x i8] c"ess_cert_id_alg\00", align 1
@.str.25 = private unnamed_addr constant [7 x i8] c"sha256\00", align 1
@.str.26 = private unnamed_addr constant [7 x i8] c"%s::%s\00", align 1
@__func__.ts_CONF_invalid = private unnamed_addr constant [16 x i8] c"ts_CONF_invalid\00", align 1

; Function Attrs: nounwind uwtable
define internal void @ts_CONF_invalid(ptr noundef %0, ptr noundef %1) #0 {
  %3 = alloca ptr, align 8
  %4 = alloca ptr, align 8
  store ptr %0, ptr %3, align 8, !tbaa !3
  store ptr %1, ptr %4, align 8, !tbaa !3
  call void @ERR_new()
  call void @ERR_set_debug(ptr noundef @.str.1, i32 noundef 132, ptr noundef @__func__.ts_CONF_invalid)
  %5 = load ptr, ptr %3, align 8, !tbaa !3
  %6 = load ptr, ptr %4, align 8, !tbaa !3
  call void (i32, i32, ptr, ...) @ERR_set_error(i32 noundef 47, i32 noundef 135, ptr noundef @.str.26, ptr noundef %5, ptr noundef %6)
  ret void
}

; Function Attrs: nounwind uwtable
define i32 @TS_CONF_set_ess_cert_id_digest(ptr noundef %0, ptr noundef %1, ptr noundef %2) #0 {
  %4 = alloca ptr, align 8
  %5 = alloca ptr, align 8
  %6 = alloca ptr, align 8
  %7 = alloca i32, align 4
  %8 = alloca ptr, align 8
  %9 = alloca ptr, align 8
  store ptr %0, ptr %4, align 8, !tbaa !31
  store ptr %1, ptr %5, align 8, !tbaa !3
  store ptr %2, ptr %6, align 8, !tbaa !33
  call void @llvm.lifetime.start.p0(i64 4, ptr %7) #7
  store i32 0, ptr %7, align 4, !tbaa !16
  call void @llvm.lifetime.start.p0(i64 8, ptr %8) #7
  store ptr null, ptr %8, align 8, !tbaa !37
  call void @llvm.lifetime.start.p0(i64 8, ptr %9) #7
  %10 = load ptr, ptr %4, align 8, !tbaa !31
  %11 = load ptr, ptr %5, align 8, !tbaa !3
  %12 = call ptr @NCONF_get_string(ptr noundef %10, ptr noundef %11, ptr noundef @.str.24)
  store ptr %12, ptr %9, align 8, !tbaa !3
  %13 = load ptr, ptr %9, align 8, !tbaa !3
  %14 = icmp eq ptr %13, null
  br i1 %14, label %15, label %16

15:                                               ; preds = %3
  store ptr @.str.25, ptr %9, align 8, !tbaa !3
  br label %16

16:                                               ; preds = %15, %3
  %17 = load ptr, ptr %9, align 8, !tbaa !3
  %18 = call ptr @EVP_get_digestbyname(ptr noundef %17)
  store ptr %18, ptr %8, align 8, !tbaa !37
  %19 = load ptr, ptr %8, align 8, !tbaa !37
  %20 = icmp eq ptr %19, null
  br i1 %20, label %21, label %23

21:                                               ; preds = %16
  %22 = load ptr, ptr %5, align 8, !tbaa !3
  call void @ts_CONF_invalid(ptr noundef %22, ptr noundef @.str.24)
  br label %30

23:                                               ; preds = %16
  %24 = load ptr, ptr %6, align 8, !tbaa !33
  %25 = load ptr, ptr %8, align 8, !tbaa !37
  %26 = call i32 @TS_RESP_CTX_set_ess_cert_id_digest(ptr noundef %24, ptr noundef %25)
  %27 = icmp ne i32 %26, 0
  br i1 %27, label %29, label %28

28:                                               ; preds = %23
  br label %30

29:                                               ; preds = %23
  store i32 1, ptr %7, align 4, !tbaa !16
  br label %30

30:                                               ; preds = %29, %28, %21
  %31 = load i32, ptr %7, align 4, !tbaa !16
  call void @llvm.lifetime.end.p0(i64 8, ptr %9) #7
  call void @llvm.lifetime.end.p0(i64 8, ptr %8) #7
  call void @llvm.lifetime.end.p0(i64 4, ptr %7) #7
  ret i32 %31
}