; Function Attrs: nounwind uwtable
define range(i32 0, 2) i32 @TS_CONF_set_ess_cert_id_digest(ptr noundef %0, ptr noundef %1, ptr noundef %2) local_unnamed_addr #0 {
  %4 = tail call ptr @NCONF_get_string(ptr noundef %0, ptr noundef %1, ptr noundef nonnull @.str.24) #4
  %5 = icmp eq ptr %4, null
  %spec.store.select = select i1 %5, ptr @.str.25, ptr %4
  %6 = tail call ptr @EVP_get_digestbyname(ptr noundef nonnull %spec.store.select) #4
  %7 = icmp eq ptr %6, null
  br i1 %7, label %8, label %9

8:                                                ; preds = %3
  tail call void @ERR_new() #4
  tail call void @ERR_set_debug(ptr noundef nonnull @.str.1, i32 noundef 132, ptr noundef nonnull @__func__.ts_CONF_invalid) #4
  tail call void (i32, i32, ptr, ...) @ERR_set_error(i32 noundef 47, i32 noundef 135, ptr noundef nonnull @.str.26, ptr noundef %1, ptr noundef nonnull @.str.24) #4
  br label %11

9:                                                ; preds = %3
  %10 = tail call i32 @TS_RESP_CTX_set_ess_cert_id_digest(ptr noundef %2, ptr noundef nonnull %6) #4
  %.not = icmp ne i32 %10, 0
  %spec.select = zext i1 %.not to i32
  br label %11

11:                                               ; preds = %9, %8
  %.0 = phi i32 [ 0, %8 ], [ %spec.select, %9 ]
  ret i32 %.0
}